Certificate:
    Data:
        Version: 3 (0x2)
        Serial Number: 4 (0x4)
    Signature Algorithm: sha256WithRSAEncryption
        Issuer: C=CN, ST=Beijing, O=G2, OU=CA, CN=www.G2.com
        Validity
            Not Before: Nov  7 01:34:28 2018 GMT
            Not After : Nov  4 01:34:28 2028 GMT
        Subject: C=CN, ST=Beijing, O=baidu, OU=CA, CN=www.server.com
        Subject Public Key Info:
            Public Key Algorithm: rsaEncryption
                Public-Key: (2048 bit)
                Modulus:
                    00:c6:ae:a7:8b:8e:44:e8:85:ee:c8:dc:2e:f5:a1:
                    9a:ef:81:9d:8f:e3:21:83:fd:da:38:e2:bb:e3:94:
                    33:35:e0:eb:ce:21:35:16:61:0c:91:55:0b:42:ed:
                    c1:31:ad:ca:8b:bf:17:cd:12:0d:1a:9b:30:62:54:
                    34:e6:2c:5e:6b:db:ef:be:7b:3f:33:1a:10:92:d9:
                    e2:7e:90:31:69:17:33:a9:af:21:b1:94:9d:47:6a:
                    e8:79:5b:ac:4c:99:7d:b5:fc:24:04:23:a0:b4:6b:
                    c4:e6:8d:b5:33:2d:28:ff:5c:7e:82:70:dd:0a:d5:
                    1e:c7:d5:e2:e1:49:b3:d6:75:45:f3:53:c2:55:f8:
                    d1:67:93:a3:e6:87:a6:42:af:4f:15:14:02:94:e1:
                    a7:3e:c4:ae:9a:e6:60:09:36:06:43:c4:97:66:35:
                    5a:42:93:ae:59:b1:c5:d5:9b:2e:bc:05:a0:a8:17:
                    51:0c:fd:02:d3:2d:d0:63:b4:38:e4:bd:89:86:f2:
                    92:1a:1b:74:65:a4:7a:e0:a8:ff:22:24:9e:39:96:
                    9e:dd:4c:48:30:d3:b8:69:0c:85:27:af:04:cc:9b:
                    5d:03:e5:a4:b6:97:9b:90:e1:25:f1:67:b9:73:ee:
                    b2:35:7d:ef:6e:04:04:58:0f:e7:41:23:c5:d4:b8:
                    0b:25
                Exponent: 65537 (0x10001)
        X509v3 extensions:
            X509v3 Subject Key Identifier: 
                6C:A2:3D:7B:66:A0:F3:D5:A0:30:1C:95:07:F9:85:5A:51:A7:F0:D8
            X509v3 Authority Key Identifier: 
                keyid:DA:4A:20:B6:62:01:D9:C3:67:F8:87:DB:BD:7A:9D:D4:81:3C:99:8B

            X509v3 Basic Constraints: 
                CA:TRUE
    Signature Algorithm: sha256WithRSAEncryption
         8a:4f:47:a1:1f:5c:43:8f:01:9b:70:16:8c:74:ca:49:00:30:
         ff:90:22:c8:9b:fb:4a:52:0e:a7:de:ae:d6:08:97:75:a6:fa:
         7e:83:4c:c9:a9:3d:ae:58:f9:07:d8:f3:af:65:ea:d7:bb:30:
         63:cb:df:87:82:d9:d5:00:d6:30:5a:a6:d4:55:93:9d:99:98:
         f8:91:b3:b9:45:b3:d6:6f:4c:fa:ea:14:6e:cd:6a:cd:72:d1:
         91:fd:e9:2c:6f:af:a0:c0:be:6b:73:e4:1d:19:cf:a6:83:04:
         91:89:33:e3:00:ff:5d:66:ae:42:e3:d7:04:a0:0c:2d:0d:88:
         af:41:c9:f6:e8:91:9a:87:bc:4e:7f:7b:75:4b:6c:a1:a4:09:
         04:f2:5d:fa:ea:a4:9f:84:5d:b2:61:c7:df:29:86:ec:7e:53:
         4e:92:1d:b5:6b:90:9f:5d:90:ff:9e:83:e4:95:9f:f5:83:d1:
         7b:28:69:b8:6a:ef:35:fb:e4:9c:b9:17:37:03:00:aa:c3:c0:
         14:c1:cb:e2:93:f2:f2:e0:be:94:75:10:14:24:56:8e:85:27:
         7f:f4:c4:1d:70:09:2e:13:7e:69:0c:37:6e:8b:65:24:44:42:
         ea:0f:e0:39:7a:57:4e:7e:e0:a9:76:c1:62:89:f2:d8:12:c5:
         4b:a3:e9:1c
-----BEGIN CERTIFICATE-----
MIIDbjCCAlagAwIBAgIBBDANBgkqhkiG9w0BAQsFADBOMQswCQYDVQQGEwJDTjEQ
MA4GA1UECAwHQmVpamluZzELMAkGA1UECgwCRzIxCzAJBgNVBAsMAkNBMRMwEQYD
VQQDDAp3d3cuRzIuY29tMB4XDTE4MTEwNzAxMzQyOFoXDTI4MTEwNDAxMzQyOFow
VTELMAkGA1UEBhMCQ04xEDAOBgNVBAgMB0JlaWppbmcxDjAMBgNVBAoMBWJhaWR1
MQswCQYDVQQLDAJDQTEXMBUGA1UEAwwOd3d3LnNlcnZlci5jb20wggEiMA0GCSqG
SIb3DQEBAQUAA4IBDwAwggEKAoIBAQDGrqeLjkTohe7I3C71oZrvgZ2P4yGD/do4
4rvjlDM14OvOITUWYQyRVQtC7cExrcqLvxfNEg0amzBiVDTmLF5r2+++ez8zGhCS
2eJ+kDFpFzOpryGxlJ1Hauh5W6xMmX21/CQEI6C0a8TmjbUzLSj/XH6CcN0K1R7H
1eLhSbPWdUXzU8JV+NFnk6Pmh6ZCr08VFAKU4ac+xK6a5mAJNgZDxJdmNVpCk65Z
scXVmy68BaCoF1EM/QLTLdBjtDjkvYmG8pIaG3RlpHrgqP8iJJ45lp7dTEgw07hp
DIUnrwTMm10D5aS2l5uQ4SXxZ7lz7rI1fe9uBARYD+dBI8XUuAslAgMBAAGjUDBO
MB0GA1UdDgQWBBRsoj17ZqDz1aAwHJUH+YVaUafw2DAfBgNVHSMEGDAWgBTaSiC2
YgHZw2f4h9u9ep3UgTyZizAMBgNVHRMEBTADAQH/MA0GCSqGSIb3DQEBCwUAA4IB
AQCKT0ehH1xDjwGbcBaMdMpJADD/kCLIm/tKUg6n3q7WCJd1pvp+g0zJqT2uWPkH
2POvZerXuzBjy9+HgtnVANYwWqbUVZOdmZj4kbO5RbPWb0z66hRuzWrNctGR/eks
b6+gwL5rc+QdGc+mgwSRiTPjAP9dZq5C49cEoAwtDYivQcn26JGah7xOf3t1S2yh
pAkE8l366qSfhF2yYcffKYbsflNOkh21a5CfXZD/noPklZ/1g9F7KGm4au81++Sc
uRc3AwCqw8AUwcvik/Ly4L6UdRAUJFaOhSd/9MQdcAkuE35pDDdui2UkRELqD+A5
eldOfuCpdsFiifLYEsVLo+kc
-----END CERTIFICATE-----
