Certificate:
    Data:
        Version: 3 (0x2)
        Serial Number: 6 (0x6)
    Signature Algorithm: ecdsa-with-SHA256
        Issuer: C=CN, ST=Beijing, O=G4, OU=CA, CN=www.G4.com
        Validity
            Not Before: Apr 14 06:40:56 2018 GMT
            Not After : Apr 11 06:40:56 2028 GMT
        Subject: C=CN, ST=Beijing, O=G3, OU=CA, CN=www.G3.com
        Subject Public Key Info:
            Public Key Algorithm: id-ecPublicKey
                Public-Key: (256 bit)
                pub: 
                    04:3b:f7:e1:3e:08:8d:12:f3:f1:08:fe:8b:f0:14:
                    ee:06:a5:a9:10:b9:86:77:e5:50:a1:28:48:e8:25:
                    c0:b4:d9:20:2b:42:f3:2a:90:5a:7d:2b:0b:08:0e:
                    d6:0d:0b:a1:6d:ef:11:e3:9e:26:ee:dc:7a:11:96:
                    b3:5c:54:e6:ad
                ASN1 OID: prime256v1
                NIST CURVE: P-256
        X509v3 extensions:
            X509v3 Subject Key Identifier: 
                51:85:34:23:FB:90:99:1A:85:E0:2E:84:9B:35:70:49:6A:B4:08:10
            X509v3 Authority Key Identifier: 
                keyid:4F:F9:E0:94:5E:3A:07:30:C6:C0:8E:7C:87:CA:DA:38:61:CC:47:87

            X509v3 Basic Constraints: 
                CA:TRUE
    Signature Algorithm: ecdsa-with-SHA256
         30:46:02:21:00:9a:9e:59:cc:90:94:4f:92:68:e1:32:bb:2a:
         fe:ac:64:b7:a0:1e:14:1a:bf:0e:cd:ea:09:5a:5f:4e:d3:62:
         ad:02:21:00:f9:58:69:89:fd:f0:0f:59:8b:12:4c:f3:2e:42:
         0f:44:17:18:c6:96:7e:68:71:4c:a9:57:d0:0b:31:2d:18:e6
-----BEGIN CERTIFICATE-----
MIIB3DCCAYGgAwIBAgIBBjAKBggqhkjOPQQDAjBOMQswCQYDVQQGEwJDTjEQMA4G
A1UECAwHQmVpamluZzELMAkGA1UECgwCRzQxCzAJBgNVBAsMAkNBMRMwEQYDVQQD
DAp3d3cuRzQuY29tMB4XDTE4MDQxNDA2NDA1NloXDTI4MDQxMTA2NDA1NlowTjEL
MAkGA1UEBhMCQ04xEDAOBgNVBAgMB0JlaWppbmcxCzAJBgNVBAoMAkczMQswCQYD
VQQLDAJDQTETMBEGA1UEAwwKd3d3LkczLmNvbTBZMBMGByqGSM49AgEGCCqGSM49
AwEHA0IABDv34T4IjRLz8Qj+i/AU7galqRC5hnflUKEoSOglwLTZICtC8yqQWn0r
CwgO1g0LoW3vEeOeJu7cehGWs1xU5q2jUDBOMB0GA1UdDgQWBBRRhTQj+5CZGoXg
LoSbNXBJarQIEDAfBgNVHSMEGDAWgBRP+eCUXjoHMMbAjnyHyto4YcxHhzAMBgNV
HRMEBTADAQH/MAoGCCqGSM49BAMCA0kAMEYCIQCanlnMkJRPkmjhMrsq/qxkt6Ae
FBq/Ds3qCVpfTtNirQIhAPlYaYn98A9ZixJM8y5CD0QXGMaWfmhxTKlX0AsxLRjm
-----END CERTIFICATE-----
