Certificate:
    Data:
        Version: 3 (0x2)
        Serial Number: 5 (0x5)
    Signature Algorithm: ecdsa-with-SHA256
        Issuer: C=CN, ST=Beijing, L=Beijing, O=G5_ca, OU=CA, CN=www.G5.com
        Validity
            Not Before: Apr 14 06:40:45 2018 GMT
            Not After : Apr 11 06:40:45 2028 GMT
        Subject: C=CN, ST=Beijing, O=G4, OU=CA, CN=www.G4.com
        Subject Public Key Info:
            Public Key Algorithm: id-ecPublicKey
                Public-Key: (256 bit)
                pub: 
                    04:94:ac:a4:6b:55:5e:3e:12:1e:02:b4:c7:f5:ef:
                    08:67:e7:59:3e:7e:59:8d:83:cc:fa:73:1c:43:45:
                    4d:07:86:ad:74:9c:2b:56:54:8b:50:14:9b:15:66:
                    04:3d:f6:f9:f6:00:2a:27:51:b8:8e:7a:b5:2d:dd:
                    c5:e6:b6:10:5f
                ASN1 OID: prime256v1
                NIST CURVE: P-256
        X509v3 extensions:
            X509v3 Subject Key Identifier: 
                4F:F9:E0:94:5E:3A:07:30:C6:C0:8E:7C:87:CA:DA:38:61:CC:47:87
            X509v3 Authority Key Identifier: 
                keyid:A0:B9:88:A2:A1:0E:E8:C0:E9:85:7F:E7:C1:1C:DD:8A:5C:46:FF:63

            X509v3 Basic Constraints: 
                CA:TRUE
    Signature Algorithm: ecdsa-with-SHA256
         30:45:02:21:00:8a:e8:ea:a1:24:ec:b6:c5:be:1b:14:f1:d7:
         2b:48:cf:b5:6c:87:85:25:4d:e6:2b:4b:3e:c6:5e:e6:21:17:
         71:02:20:47:c8:4c:43:02:98:f3:dd:8e:2e:19:aa:47:ed:80:
         8b:33:6e:66:05:21:ee:5d:fa:59:64:9b:54:bf:59:e7:91
-----BEGIN CERTIFICATE-----
MIIB8DCCAZagAwIBAgIBBTAKBggqhkjOPQQDAjBjMQswCQYDVQQGEwJDTjEQMA4G
A1UECAwHQmVpamluZzEQMA4GA1UEBwwHQmVpamluZzEOMAwGA1UECgwFRzVfY2Ex
CzAJBgNVBAsMAkNBMRMwEQYDVQQDDAp3d3cuRzUuY29tMB4XDTE4MDQxNDA2NDA0
NVoXDTI4MDQxMTA2NDA0NVowTjELMAkGA1UEBhMCQ04xEDAOBgNVBAgMB0JlaWpp
bmcxCzAJBgNVBAoMAkc0MQswCQYDVQQLDAJDQTETMBEGA1UEAwwKd3d3Lkc0LmNv
bTBZMBMGByqGSM49AgEGCCqGSM49AwEHA0IABJSspGtVXj4SHgK0x/XvCGfnWT5+
WY2DzPpzHENFTQeGrXScK1ZUi1AUmxVmBD32+fYAKidRuI56tS3dxea2EF+jUDBO
MB0GA1UdDgQWBBRP+eCUXjoHMMbAjnyHyto4YcxHhzAfBgNVHSMEGDAWgBSguYii
oQ7owOmFf+fBHN2KXEb/YzAMBgNVHRMEBTADAQH/MAoGCCqGSM49BAMCA0gAMEUC
IQCK6OqhJOy2xb4bFPHXK0jPtWyHhSVN5itLPsZe5iEXcQIgR8hMQwKY892OLhmq
R+2AizNuZgUh7l36WWSbVL9Z55E=
-----END CERTIFICATE-----
Certificate:
    Data:
        Version: 3 (0x2)
        Serial Number: 6 (0x6)
    Signature Algorithm: ecdsa-with-SHA256
        Issuer: C=CN, ST=Beijing, O=G4, OU=CA, CN=www.G4.com
        Validity
            Not Before: Apr 14 06:40:56 2018 GMT
            Not After : Apr 11 06:40:56 2028 GMT
        Subject: C=CN, ST=Beijing, O=G3, OU=CA, CN=www.G3.com
        Subject Public Key Info:
            Public Key Algorithm: id-ecPublicKey
                Public-Key: (256 bit)
                pub: 
                    04:3b:f7:e1:3e:08:8d:12:f3:f1:08:fe:8b:f0:14:
                    ee:06:a5:a9:10:b9:86:77:e5:50:a1:28:48:e8:25:
                    c0:b4:d9:20:2b:42:f3:2a:90:5a:7d:2b:0b:08:0e:
                    d6:0d:0b:a1:6d:ef:11:e3:9e:26:ee:dc:7a:11:96:
                    b3:5c:54:e6:ad
                ASN1 OID: prime256v1
                NIST CURVE: P-256
        X509v3 extensions:
            X509v3 Subject Key Identifier: 
                51:85:34:23:FB:90:99:1A:85:E0:2E:84:9B:35:70:49:6A:B4:08:10
            X509v3 Authority Key Identifier: 
                keyid:4F:F9:E0:94:5E:3A:07:30:C6:C0:8E:7C:87:CA:DA:38:61:CC:47:87

            X509v3 Basic Constraints: 
                CA:TRUE
    Signature Algorithm: ecdsa-with-SHA256
         30:46:02:21:00:9a:9e:59:cc:90:94:4f:92:68:e1:32:bb:2a:
         fe:ac:64:b7:a0:1e:14:1a:bf:0e:cd:ea:09:5a:5f:4e:d3:62:
         ad:02:21:00:f9:58:69:89:fd:f0:0f:59:8b:12:4c:f3:2e:42:
         0f:44:17:18:c6:96:7e:68:71:4c:a9:57:d0:0b:31:2d:18:e6
-----BEGIN CERTIFICATE-----
MIIB3DCCAYGgAwIBAgIBBjAKBggqhkjOPQQDAjBOMQswCQYDVQQGEwJDTjEQMA4G
A1UECAwHQmVpamluZzELMAkGA1UECgwCRzQxCzAJBgNVBAsMAkNBMRMwEQYDVQQD
DAp3d3cuRzQuY29tMB4XDTE4MDQxNDA2NDA1NloXDTI4MDQxMTA2NDA1NlowTjEL
MAkGA1UEBhMCQ04xEDAOBgNVBAgMB0JlaWppbmcxCzAJBgNVBAoMAkczMQswCQYD
VQQLDAJDQTETMBEGA1UEAwwKd3d3LkczLmNvbTBZMBMGByqGSM49AgEGCCqGSM49
AwEHA0IABDv34T4IjRLz8Qj+i/AU7galqRC5hnflUKEoSOglwLTZICtC8yqQWn0r
CwgO1g0LoW3vEeOeJu7cehGWs1xU5q2jUDBOMB0GA1UdDgQWBBRRhTQj+5CZGoXg
LoSbNXBJarQIEDAfBgNVHSMEGDAWgBRP+eCUXjoHMMbAjnyHyto4YcxHhzAMBgNV
HRMEBTADAQH/MAoGCCqGSM49BAMCA0kAMEYCIQCanlnMkJRPkmjhMrsq/qxkt6Ae
FBq/Ds3qCVpfTtNirQIhAPlYaYn98A9ZixJM8y5CD0QXGMaWfmhxTKlX0AsxLRjm
-----END CERTIFICATE-----
Certificate:
    Data:
        Version: 3 (0x2)
        Serial Number: 7 (0x7)
    Signature Algorithm: ecdsa-with-SHA256
        Issuer: C=CN, ST=Beijing, O=G3, OU=CA, CN=www.G3.com
        Validity
            Not Before: Apr 14 06:41:06 2018 GMT
            Not After : Apr 11 06:41:06 2028 GMT
        Subject: C=CN, ST=Beijing, O=G2, OU=CA, CN=www.G2.com
        Subject Public Key Info:
            Public Key Algorithm: id-ecPublicKey
                Public-Key: (256 bit)
                pub: 
                    04:13:a6:91:f9:4e:9a:75:e5:db:28:82:8f:95:c6:
                    18:f0:9e:4b:dc:38:58:49:37:a5:16:ee:7c:64:b9:
                    86:5c:0e:56:15:05:f4:2b:4f:af:e1:f8:bf:b7:f9:
                    ee:a5:15:6d:9b:8d:31:0e:99:6d:92:11:e8:01:dc:
                    90:e0:46:65:83
                ASN1 OID: prime256v1
                NIST CURVE: P-256
        X509v3 extensions:
            X509v3 Subject Key Identifier: 
                CF:72:FA:34:E0:70:7C:6A:E5:21:B2:83:22:72:52:F3:92:F2:2D:80
            X509v3 Authority Key Identifier: 
                keyid:51:85:34:23:FB:90:99:1A:85:E0:2E:84:9B:35:70:49:6A:B4:08:10

            X509v3 Basic Constraints: 
                CA:TRUE
    Signature Algorithm: ecdsa-with-SHA256
         30:45:02:20:24:b3:51:70:04:bd:24:22:a7:28:0c:71:ce:8a:
         e9:22:21:d2:d1:ac:6e:fe:af:d8:e7:73:8a:a0:18:a1:d2:64:
         02:21:00:fb:37:66:67:9a:da:7e:b4:a9:23:c9:70:36:e1:d7:
         a2:20:0c:63:fb:25:bc:b5:4e:c0:e7:4d:68:f8:cb:56:0f
-----BEGIN CERTIFICATE-----
MIIB2zCCAYGgAwIBAgIBBzAKBggqhkjOPQQDAjBOMQswCQYDVQQGEwJDTjEQMA4G
A1UECAwHQmVpamluZzELMAkGA1UECgwCRzMxCzAJBgNVBAsMAkNBMRMwEQYDVQQD
DAp3d3cuRzMuY29tMB4XDTE4MDQxNDA2NDEwNloXDTI4MDQxMTA2NDEwNlowTjEL
MAkGA1UEBhMCQ04xEDAOBgNVBAgMB0JlaWppbmcxCzAJBgNVBAoMAkcyMQswCQYD
VQQLDAJDQTETMBEGA1UEAwwKd3d3LkcyLmNvbTBZMBMGByqGSM49AgEGCCqGSM49
AwEHA0IABBOmkflOmnXl2yiCj5XGGPCeS9w4WEk3pRbufGS5hlwOVhUF9CtPr+H4
v7f57qUVbZuNMQ6ZbZIR6AHckOBGZYOjUDBOMB0GA1UdDgQWBBTPcvo04HB8auUh
soMiclLzkvItgDAfBgNVHSMEGDAWgBRRhTQj+5CZGoXgLoSbNXBJarQIEDAMBgNV
HRMEBTADAQH/MAoGCCqGSM49BAMCA0gAMEUCICSzUXAEvSQipygMcc6K6SIh0tGs
bv6v2OdziqAYodJkAiEA+zdmZ5rafrSpI8lwNuHXoiAMY/slvLVOwOdNaPjLVg8=
-----END CERTIFICATE-----
