Certificate:
    Data:
        Version: 3 (0x2)
        Serial Number: 8 (0x8)
    Signature Algorithm: ecdsa-with-SHA256
        Issuer: C=CN, ST=Beijing, O=G2, OU=CA, CN=www.G2.com
        Validity
            Not Before: Apr 14 06:41:14 2018 GMT
            Not After : Apr 11 06:41:14 2028 GMT
        Subject: C=CN, ST=Beijing, O=icbc, OU=CA, CN=www.icbc.com
        Subject Public Key Info:
            Public Key Algorithm: id-ecPublicKey
                Public-Key: (256 bit)
                pub: 
                    04:37:eb:6f:45:c7:8d:59:87:fb:55:c8:ec:d2:2a:
                    3b:51:6a:70:65:0b:92:c1:c7:9c:b7:77:ed:12:96:
                    02:9c:db:ec:d8:53:32:0a:18:8a:9a:71:4f:af:cb:
                    ef:94:8e:c7:2c:8b:6e:43:1e:a6:8a:44:e4:25:3f:
                    c1:a0:32:66:82
                ASN1 OID: prime256v1
                NIST CURVE: P-256
        X509v3 extensions:
            X509v3 Subject Key Identifier: 
                61:0D:44:F9:31:5A:40:9E:5B:7B:3A:C6:AC:53:99:BB:B8:AB:79:EE
            X509v3 Authority Key Identifier: 
                keyid:CF:72:FA:34:E0:70:7C:6A:E5:21:B2:83:22:72:52:F3:92:F2:2D:80

            X509v3 Basic Constraints: 
                CA:TRUE
    Signature Algorithm: ecdsa-with-SHA256
         30:45:02:21:00:80:08:22:e6:7b:76:ee:56:e0:d7:20:4a:b1:
         2f:9b:2a:5e:0d:87:b4:bf:06:07:2b:7c:7a:da:f2:b8:f2:41:
         3b:02:20:78:9a:fd:a5:fb:65:0a:7e:0b:3e:08:72:0a:8c:aa:
         91:db:f5:ad:82:43:6a:8a:b4:2f:36:51:d9:b5:92:7e:8b
-----BEGIN CERTIFICATE-----
MIIB3zCCAYWgAwIBAgIBCDAKBggqhkjOPQQDAjBOMQswCQYDVQQGEwJDTjEQMA4G
A1UECAwHQmVpamluZzELMAkGA1UECgwCRzIxCzAJBgNVBAsMAkNBMRMwEQYDVQQD
DAp3d3cuRzIuY29tMB4XDTE4MDQxNDA2NDExNFoXDTI4MDQxMTA2NDExNFowUjEL
MAkGA1UEBhMCQ04xEDAOBgNVBAgMB0JlaWppbmcxDTALBgNVBAoMBGljYmMxCzAJ
BgNVBAsMAkNBMRUwEwYDVQQDDAx3d3cuaWNiYy5jb20wWTATBgcqhkjOPQIBBggq
hkjOPQMBBwNCAAQ3629Fx41Zh/tVyOzSKjtRanBlC5LBx5y3d+0SlgKc2+zYUzIK
GIqacU+vy++Ujscsi25DHqaKROQlP8GgMmaCo1AwTjAdBgNVHQ4EFgQUYQ1E+TFa
QJ5bezrGrFOZu7iree4wHwYDVR0jBBgwFoAUz3L6NOBwfGrlIbKDInJS85LyLYAw
DAYDVR0TBAUwAwEB/zAKBggqhkjOPQQDAgNIADBFAiEAgAgi5nt27lbg1yBKsS+b
Kl4Nh7S/BgcrfHra8rjyQTsCIHia/aX7ZQp+Cz4IcgqMqpHb9a2CQ2qKtC82Udm1
kn6L
-----END CERTIFICATE-----
