Certificate:
    Data:
        Version: 3 (0x2)
        Serial Number: 11 (0xb)
    Signature Algorithm: ecdsa-with-SHA256
        Issuer: C=CN, ST=Beijing, O=G4, OU=CA, CN=www.G3.com
        Validity
            Not Before: Nov  7 02:07:06 2018 GMT
            Not After : Nov  4 02:07:06 2028 GMT
        Subject: C=CN, ST=Beijing, O=G4, OU=CA, CN=www.G2.com
        Subject Public Key Info:
            Public Key Algorithm: id-ecPublicKey
                Public-Key: (256 bit)
                pub: 
                    04:55:a7:1f:d9:ab:12:17:a9:d9:1e:69:fe:2c:20:
                    37:35:06:b8:92:aa:65:5e:68:ba:e3:16:29:4e:e0:
                    23:10:93:e4:24:c9:bc:4d:92:49:9b:f1:89:60:ca:
                    c5:a6:a2:8b:12:eb:4b:68:f4:82:7b:c5:90:fa:04:
                    c7:be:fe:0f:43
                ASN1 OID: prime256v1
                NIST CURVE: P-256
        X509v3 extensions:
            X509v3 Subject Key Identifier: 
                49:EE:7E:AC:81:10:32:14:39:47:56:E1:03:3E:C8:CC:C4:5C:8C:2E
            X509v3 Authority Key Identifier: 
                keyid:B5:1C:69:15:3D:6F:8B:ED:D1:3E:06:32:54:FB:92:0A:AB:F0:E8:53

            X509v3 Basic Constraints: 
                CA:TRUE
    Signature Algorithm: ecdsa-with-SHA256
         30:46:02:21:00:fc:da:a8:93:4d:64:16:bd:90:d6:f7:35:69:
         05:5d:dc:ea:43:d1:b4:a8:61:a6:df:98:10:07:93:a2:bb:9d:
         3b:02:21:00:fc:f8:3f:36:66:c3:67:56:f6:96:82:50:79:a2:
         9b:4d:32:55:fe:13:03:1a:a9:3e:3a:22:8f:70:1d:62:32:91
-----BEGIN CERTIFICATE-----
MIIB3DCCAYGgAwIBAgIBCzAKBggqhkjOPQQDAjBOMQswCQYDVQQGEwJDTjEQMA4G
A1UECAwHQmVpamluZzELMAkGA1UECgwCRzQxCzAJBgNVBAsMAkNBMRMwEQYDVQQD
DAp3d3cuRzMuY29tMB4XDTE4MTEwNzAyMDcwNloXDTI4MTEwNDAyMDcwNlowTjEL
MAkGA1UEBhMCQ04xEDAOBgNVBAgMB0JlaWppbmcxCzAJBgNVBAoMAkc0MQswCQYD
VQQLDAJDQTETMBEGA1UEAwwKd3d3LkcyLmNvbTBZMBMGByqGSM49AgEGCCqGSM49
AwEHA0IABFWnH9mrEhep2R5p/iwgNzUGuJKqZV5ouuMWKU7gIxCT5CTJvE2SSZvx
iWDKxaaiixLrS2j0gnvFkPoEx77+D0OjUDBOMB0GA1UdDgQWBBRJ7n6sgRAyFDlH
VuEDPsjMxFyMLjAfBgNVHSMEGDAWgBS1HGkVPW+L7dE+BjJU+5IKq/DoUzAMBgNV
HRMEBTADAQH/MAoGCCqGSM49BAMCA0kAMEYCIQD82qiTTWQWvZDW9zVpBV3c6kPR
tKhhpt+YEAeTorudOwIhAPz4PzZmw2dW9paCUHmim00yVf4TAxqpPjoij3AdYjKR
-----END CERTIFICATE-----
