Certificate:
    Data:
        Version: 3 (0x2)
        Serial Number: 3 (0x3)
    Signature Algorithm: sha256WithRSAEncryption
        Issuer: C=CN, ST=Beijing, O=G3, OU=CA, CN=www.G3.com
        Validity
            Not Before: Nov  7 01:34:19 2018 GMT
            Not After : Nov  4 01:34:19 2028 GMT
        Subject: C=CN, ST=Beijing, O=G2, OU=CA, CN=www.G2.com
        Subject Public Key Info:
            Public Key Algorithm: rsaEncryption
                Public-Key: (2048 bit)
                Modulus:
                    00:c8:be:34:2d:c9:43:a8:5a:80:29:3e:14:d4:5b:
                    03:2a:7c:48:ad:da:2b:aa:cb:c2:8b:da:d9:cc:10:
                    89:1b:d0:fe:01:de:63:b2:36:ed:91:5f:00:24:b1:
                    e6:95:ea:e8:17:cf:a0:74:12:cf:45:3a:ee:4d:82:
                    a5:78:1e:de:25:30:3e:c6:67:bb:ad:29:ee:bd:c0:
                    57:83:9a:62:37:bb:28:78:a5:c5:36:db:84:83:56:
                    85:04:db:61:e0:c7:97:53:bc:2b:c2:30:bf:8d:2e:
                    3b:d7:f7:b0:c5:a1:86:b2:07:ec:68:be:2d:16:49:
                    ab:89:16:a3:4d:41:d8:dc:f4:ff:7d:a5:81:f4:5c:
                    07:ea:a0:a4:45:b4:7a:af:9d:2c:c4:97:d0:8e:f0:
                    4b:87:ff:04:ce:29:f4:4b:d5:52:e9:56:98:9f:e8:
                    bb:e4:2c:c0:cb:29:a8:a4:7c:7f:96:70:7b:a8:ee:
                    e3:c2:f9:14:f3:56:24:de:6c:0e:c0:5a:ae:f4:c5:
                    8c:05:ec:5f:87:8b:b1:b4:b4:17:ee:a2:40:04:c5:
                    09:61:20:27:af:57:a7:8a:7b:72:7b:87:24:f3:dc:
                    84:c1:73:09:cb:53:82:da:12:77:0c:54:ea:33:60:
                    6d:3d:1d:d4:dc:71:7c:d1:7f:df:36:05:ed:4c:bf:
                    19:21
                Exponent: 65537 (0x10001)
        X509v3 extensions:
            X509v3 Subject Key Identifier: 
                DA:4A:20:B6:62:01:D9:C3:67:F8:87:DB:BD:7A:9D:D4:81:3C:99:8B
            X509v3 Authority Key Identifier: 
                keyid:9E:6D:8E:D7:BF:27:06:5A:5E:4C:6F:4C:09:35:E9:1B:4B:54:34:7E

            X509v3 Basic Constraints: 
                CA:TRUE
    Signature Algorithm: sha256WithRSAEncryption
         9d:87:82:2f:ad:0e:df:01:a9:f8:66:fa:30:04:ed:05:0f:26:
         ef:0a:ba:6e:1e:3f:dd:30:45:29:61:ac:ab:b4:c2:40:20:f4:
         83:d3:ee:fd:2e:42:a6:e5:41:30:b5:33:da:fc:d4:42:df:91:
         e5:d9:7a:f1:68:c9:aa:4f:5f:bd:87:f4:4a:7d:14:13:2d:a6:
         5f:73:3c:e0:a3:71:69:a1:17:1c:c4:50:e5:a0:7a:2e:60:41:
         6a:58:af:c6:80:d8:df:8d:1d:2a:5e:87:99:a1:f7:d5:8f:bf:
         80:a2:6e:a5:65:ce:37:ff:18:78:d1:9f:a5:d0:ac:77:df:4a:
         ae:f4:3c:56:4c:e4:98:61:7b:bf:e0:4c:82:bb:e7:e8:f6:87:
         28:25:b4:97:64:c9:ad:c4:55:d3:58:fb:e6:fa:7e:b8:00:42:
         27:f7:cb:42:9b:33:c1:f4:16:d9:4f:33:9c:eb:c2:29:cb:7e:
         08:3b:04:19:e0:91:ff:83:17:f0:6f:2a:5e:26:13:9c:47:c5:
         6b:a9:c0:91:fb:45:c4:0b:1d:8a:29:cf:e0:3e:73:a5:90:44:
         01:75:ca:bf:0d:05:59:b0:fd:f5:05:b2:aa:f8:53:bb:57:15:
         63:22:51:8c:ef:3b:e0:ab:39:2a:5d:be:11:87:7e:46:c6:16:
         7b:49:c8:eb
-----BEGIN CERTIFICATE-----
MIIDZzCCAk+gAwIBAgIBAzANBgkqhkiG9w0BAQsFADBOMQswCQYDVQQGEwJDTjEQ
MA4GA1UECAwHQmVpamluZzELMAkGA1UECgwCRzMxCzAJBgNVBAsMAkNBMRMwEQYD
VQQDDAp3d3cuRzMuY29tMB4XDTE4MTEwNzAxMzQxOVoXDTI4MTEwNDAxMzQxOVow
TjELMAkGA1UEBhMCQ04xEDAOBgNVBAgMB0JlaWppbmcxCzAJBgNVBAoMAkcyMQsw
CQYDVQQLDAJDQTETMBEGA1UEAwwKd3d3LkcyLmNvbTCCASIwDQYJKoZIhvcNAQEB
BQADggEPADCCAQoCggEBAMi+NC3JQ6hagCk+FNRbAyp8SK3aK6rLwova2cwQiRvQ
/gHeY7I27ZFfACSx5pXq6BfPoHQSz0U67k2CpXge3iUwPsZnu60p7r3AV4OaYje7
KHilxTbbhINWhQTbYeDHl1O8K8Iwv40uO9f3sMWhhrIH7Gi+LRZJq4kWo01B2Nz0
/32lgfRcB+qgpEW0eq+dLMSX0I7wS4f/BM4p9EvVUulWmJ/ou+QswMspqKR8f5Zw
e6ju48L5FPNWJN5sDsBarvTFjAXsX4eLsbS0F+6iQATFCWEgJ69Xp4p7cnuHJPPc
hMFzCctTgtoSdwxU6jNgbT0d1NxxfNF/3zYF7Uy/GSECAwEAAaNQME4wHQYDVR0O
BBYEFNpKILZiAdnDZ/iH2716ndSBPJmLMB8GA1UdIwQYMBaAFJ5tjte/JwZaXkxv
TAk16RtLVDR+MAwGA1UdEwQFMAMBAf8wDQYJKoZIhvcNAQELBQADggEBAJ2Hgi+t
Dt8Bqfhm+jAE7QUPJu8Kum4eP90wRSlhrKu0wkAg9IPT7v0uQqblQTC1M9r81ELf
keXZevFoyapPX72H9Ep9FBMtpl9zPOCjcWmhFxzEUOWgei5gQWpYr8aA2N+NHSpe
h5mh99WPv4CibqVlzjf/GHjRn6XQrHffSq70PFZM5Jhhe7/gTIK75+j2hygltJdk
ya3EVdNY++b6frgAQif3y0KbM8H0FtlPM5zrwinLfgg7BBngkf+DF/BvKl4mE5xH
xWupwJH7RcQLHYopz+A+c6WQRAF1yr8NBVmw/fUFsqr4U7tXFWMiUYzvO+CrOSpd
vhGHfkbGFntJyOs=
-----END CERTIFICATE-----
