Certificate:
    Data:
        Version: 3 (0x2)
        Serial Number: 3 (0x3)
    Signature Algorithm: sha256WithRSAEncryption
        Issuer: C=CN, ST=Beijing, O=G3, OU=CA, CN=www.G3.com
        Validity
            Not Before: Apr 14 06:32:00 2018 GMT
            Not After : Apr 11 06:32:00 2028 GMT
        Subject: C=CN, ST=Beijing, O=G2, OU=CA, CN=www.G2.com
        Subject Public Key Info:
            Public Key Algorithm: rsaEncryption
                Public-Key: (2048 bit)
                Modulus:
                    00:af:df:41:49:43:eb:26:34:db:40:a0:ac:f1:52:
                    96:9d:e7:5d:6a:4d:25:f8:05:85:2e:f1:9b:24:af:
                    2d:23:9c:ac:82:5e:cd:81:a5:e0:28:30:de:69:64:
                    47:82:d2:3f:7e:d6:00:e9:87:3e:5a:da:28:bf:f8:
                    dc:36:77:43:46:c6:e8:8a:0e:df:ef:9e:a3:15:f9:
                    5e:eb:55:e1:8a:59:33:cd:78:c5:47:6c:e1:07:47:
                    98:02:e0:b5:49:6f:28:f9:49:d7:5c:e5:52:fe:55:
                    56:ee:61:63:5e:43:85:50:78:c2:b5:a8:6f:92:22:
                    1a:8f:26:6a:8b:a7:0c:d4:48:bc:94:ec:e5:71:9c:
                    d3:9f:ed:2b:8a:27:3a:11:f8:6f:7f:3c:95:8d:6e:
                    78:a9:fe:d4:58:4a:56:9f:34:a0:a8:09:09:a5:23:
                    0f:3a:90:6f:fb:9c:70:59:14:a4:7e:92:8a:e2:6f:
                    17:6f:b5:4e:fc:20:53:ca:b5:ab:50:96:e4:7b:f0:
                    3c:c9:10:c3:82:ce:1b:04:02:ea:a4:0f:e3:c7:60:
                    05:e8:30:7a:91:9f:cb:4c:38:57:b6:95:3f:11:6a:
                    87:a2:2f:e7:c3:40:49:69:39:f7:29:93:c6:b4:b8:
                    41:bf:e2:31:fe:9a:e9:34:e3:0e:ff:5e:2d:12:e3:
                    54:1f
                Exponent: 65537 (0x10001)
        X509v3 extensions:
            X509v3 Subject Key Identifier: 
                F7:52:6D:C1:0A:3C:7F:72:61:75:56:BB:05:2A:7C:F9:AA:7D:E9:1B
            X509v3 Authority Key Identifier: 
                keyid:9B:8E:65:7C:14:60:11:92:B9:DB:59:85:D6:C0:F5:CB:4E:3F:EA:20

            X509v3 Basic Constraints: 
                CA:TRUE
    Signature Algorithm: sha256WithRSAEncryption
         6b:45:58:13:63:fb:0a:45:fc:14:03:96:7f:80:b0:8f:57:2f:
         6f:91:df:99:bd:5d:7e:94:9c:40:03:d4:07:a9:5c:88:34:82:
         56:ee:83:83:0e:2d:bd:4e:3c:43:84:a8:dc:a4:3c:27:80:8b:
         dc:7a:ff:bc:7d:8d:a6:8a:e8:bf:0d:1e:77:7b:8a:a4:e2:ff:
         1f:e7:c4:84:1f:b9:a3:27:01:24:b3:d1:8d:9e:95:5f:9a:27:
         35:d6:7f:8d:fa:d0:ca:e8:6d:14:cf:fc:6e:db:ea:81:4d:84:
         1e:ec:a5:70:79:92:e8:ce:53:0d:f8:a2:70:91:88:97:cd:b0:
         d3:66:c9:3b:20:f8:c0:4e:64:9c:60:8c:89:93:be:fb:c7:2a:
         1c:67:3a:22:07:df:ca:8a:ca:79:38:8c:0b:b2:3c:4b:c7:1b:
         a3:98:c0:9f:15:44:2d:a5:b8:4a:30:47:0c:9f:6f:00:ec:ca:
         7a:f7:f7:0d:47:f5:a7:f4:c6:b9:fb:a0:8a:30:d9:df:ac:4a:
         3b:32:14:9d:e7:8a:77:d3:7a:ae:0c:cc:83:44:4a:8e:4e:6f:
         23:3f:11:53:9b:2d:d1:a6:f5:73:23:8d:d3:8e:84:32:38:f4:
         b4:8d:3b:c0:c3:ec:53:bd:ca:63:e2:19:87:76:db:d8:ea:b8:
         a0:8e:e7:57
-----BEGIN CERTIFICATE-----
MIIDZzCCAk+gAwIBAgIBAzANBgkqhkiG9w0BAQsFADBOMQswCQYDVQQGEwJDTjEQ
MA4GA1UECAwHQmVpamluZzELMAkGA1UECgwCRzMxCzAJBgNVBAsMAkNBMRMwEQYD
VQQDDAp3d3cuRzMuY29tMB4XDTE4MDQxNDA2MzIwMFoXDTI4MDQxMTA2MzIwMFow
TjELMAkGA1UEBhMCQ04xEDAOBgNVBAgMB0JlaWppbmcxCzAJBgNVBAoMAkcyMQsw
CQYDVQQLDAJDQTETMBEGA1UEAwwKd3d3LkcyLmNvbTCCASIwDQYJKoZIhvcNAQEB
BQADggEPADCCAQoCggEBAK/fQUlD6yY020CgrPFSlp3nXWpNJfgFhS7xmySvLSOc
rIJezYGl4Cgw3mlkR4LSP37WAOmHPlraKL/43DZ3Q0bG6IoO3++eoxX5XutV4YpZ
M814xUds4QdHmALgtUlvKPlJ11zlUv5VVu5hY15DhVB4wrWob5IiGo8maounDNRI
vJTs5XGc05/tK4onOhH4b388lY1ueKn+1FhKVp80oKgJCaUjDzqQb/uccFkUpH6S
iuJvF2+1TvwgU8q1q1CW5HvwPMkQw4LOGwQC6qQP48dgBegwepGfy0w4V7aVPxFq
h6Iv58NASWk59ymTxrS4Qb/iMf6a6TTjDv9eLRLjVB8CAwEAAaNQME4wHQYDVR0O
BBYEFPdSbcEKPH9yYXVWuwUqfPmqfekbMB8GA1UdIwQYMBaAFJuOZXwUYBGSudtZ
hdbA9ctOP+ogMAwGA1UdEwQFMAMBAf8wDQYJKoZIhvcNAQELBQADggEBAGtFWBNj
+wpF/BQDln+AsI9XL2+R35m9XX6UnEAD1AepXIg0glbug4MOLb1OPEOEqNykPCeA
i9x6/7x9jaaK6L8NHnd7iqTi/x/nxIQfuaMnASSz0Y2elV+aJzXWf4360MrobRTP
/G7b6oFNhB7spXB5kujOUw34onCRiJfNsNNmyTsg+MBOZJxgjImTvvvHKhxnOiIH
38qKynk4jAuyPEvHG6OYwJ8VRC2luEowRwyfbwDsynr39w1H9af0xrn7oIow2d+s
SjsyFJ3ninfTeq4MzINESo5ObyM/EVObLdGm9XMjjdOOhDI49LSNO8DD7FO9ymPi
GYd229jquKCO51c=
-----END CERTIFICATE-----
