Certificate:
    Data:
        Version: 3 (0x2)
        Serial Number: 1 (0x1)
    Signature Algorithm: sha256WithRSAEncryption
        Issuer: C=CN, ST=Beijing, L=Beijing, O=G5, OU=CA, CN=www.G5.com
        Validity
            Not Before: Nov  7 01:33:25 2018 GMT
            Not After : Nov  4 01:33:25 2028 GMT
        Subject: C=CN, ST=Beijing, O=G4, OU=CA, CN=www.G4.com
        Subject Public Key Info:
            Public Key Algorithm: rsaEncryption
                Public-Key: (2048 bit)
                Modulus:
                    00:c0:81:b3:44:19:cf:9a:94:ad:7b:a3:ac:6d:74:
                    be:94:e0:1c:cc:04:85:4a:6a:04:07:07:c5:0b:11:
                    a1:ca:b0:e0:61:d2:de:d5:4d:e2:ae:8b:2a:82:63:
                    a1:00:61:36:4b:f6:b4:19:ad:0c:4b:19:2b:09:5f:
                    80:2f:ae:d3:0c:c6:e9:e8:4c:50:6b:af:76:f9:17:
                    25:c5:a1:15:34:79:48:90:d2:df:c8:8a:74:86:09:
                    11:14:3e:c6:1a:82:dc:84:eb:ef:6f:ba:8a:2a:d9:
                    75:b0:81:ac:8a:d7:b3:33:8c:52:dc:19:12:93:cd:
                    a6:5f:dd:54:70:6b:7f:ba:02:6d:d9:73:0b:10:7c:
                    a8:5d:65:2f:bf:3d:bf:d5:3e:56:d1:70:f3:7d:b5:
                    4f:bb:6b:ad:91:81:c4:a9:54:4f:93:d3:f7:e9:e2:
                    56:cd:a7:c7:ff:d8:3d:48:52:40:6b:a5:9d:4b:40:
                    0f:4b:04:ca:f3:1c:23:a6:ab:9b:70:e8:b3:24:2d:
                    1e:48:e3:6b:59:9b:0a:1e:b5:9b:35:11:36:39:db:
                    af:8d:09:e5:40:61:79:36:d2:e5:ae:de:ef:5d:f5:
                    a0:94:5e:2c:b9:fc:9b:99:24:d3:88:a1:03:23:ea:
                    5e:4b:0d:7f:9f:e2:5b:02:73:3d:b8:04:2a:ee:fc:
                    1f:5f
                Exponent: 65537 (0x10001)
        X509v3 extensions:
            X509v3 Subject Key Identifier: 
                D7:EE:9F:CD:EE:DC:D1:17:46:7D:FF:54:97:B1:58:CD:46:1D:26:A9
            X509v3 Authority Key Identifier: 
                keyid:99:B3:B4:93:3B:5F:BA:EA:C3:C6:08:71:C0:AA:D6:CC:5B:D9:F1:1B

            X509v3 Basic Constraints: 
                CA:TRUE
    Signature Algorithm: sha256WithRSAEncryption
         3c:c3:a3:56:d3:7d:bb:2a:a8:91:87:02:56:8c:80:da:17:1a:
         23:18:80:9c:11:36:8c:31:24:d3:77:07:4a:ee:df:ef:63:d2:
         ac:eb:09:4a:9b:b7:fe:46:69:ad:7d:8e:15:07:e5:d0:71:12:
         1a:3a:79:2f:8a:7d:67:73:39:79:ee:95:ac:ff:0f:d9:ce:9f:
         d8:2d:04:01:6d:ff:e5:1f:0d:d5:21:0e:4f:d1:a1:19:0c:55:
         9b:fe:41:1e:ec:f4:b1:28:ba:d5:80:7a:77:3a:c6:a5:aa:aa:
         3c:a0:af:f9:02:61:53:41:20:ce:92:04:9b:9e:f6:34:15:ba:
         2c:d4:fa:fe:8e:37:8c:67:ae:f8:1d:6e:27:3d:ae:2d:98:a9:
         25:a3:de:39:e4:70:be:4e:b0:9b:8b:c2:82:b3:b1:7a:f8:a4:
         5b:4b:19:15:48:83:09:cd:c8:6c:9c:a1:30:ee:a9:fd:f2:bd:
         2e:bc:7a:86:56:6f:72:48:2c:41:62:b9:f8:b5:14:9d:dc:18:
         76:3e:cd:f4:38:1e:13:d7:4c:68:8b:cd:19:f9:bb:04:a4:c0:
         f9:a2:8a:77:8b:81:21:72:4d:c0:21:8a:9b:6b:ac:a8:31:c0:
         8c:50:78:d8:ff:b9:4f:7b:85:be:2c:ea:23:6b:53:5f:96:1e:
         cc:5d:f2:cb
-----BEGIN CERTIFICATE-----
MIIDeTCCAmGgAwIBAgIBATANBgkqhkiG9w0BAQsFADBgMQswCQYDVQQGEwJDTjEQ
MA4GA1UECAwHQmVpamluZzEQMA4GA1UEBwwHQmVpamluZzELMAkGA1UECgwCRzUx
CzAJBgNVBAsMAkNBMRMwEQYDVQQDDAp3d3cuRzUuY29tMB4XDTE4MTEwNzAxMzMy
NVoXDTI4MTEwNDAxMzMyNVowTjELMAkGA1UEBhMCQ04xEDAOBgNVBAgMB0JlaWpp
bmcxCzAJBgNVBAoMAkc0MQswCQYDVQQLDAJDQTETMBEGA1UEAwwKd3d3Lkc0LmNv
bTCCASIwDQYJKoZIhvcNAQEBBQADggEPADCCAQoCggEBAMCBs0QZz5qUrXujrG10
vpTgHMwEhUpqBAcHxQsRocqw4GHS3tVN4q6LKoJjoQBhNkv2tBmtDEsZKwlfgC+u
0wzG6ehMUGuvdvkXJcWhFTR5SJDS38iKdIYJERQ+xhqC3ITr72+6iirZdbCBrIrX
szOMUtwZEpPNpl/dVHBrf7oCbdlzCxB8qF1lL789v9U+VtFw8321T7trrZGBxKlU
T5PT9+niVs2nx//YPUhSQGulnUtAD0sEyvMcI6arm3DosyQtHkjja1mbCh61mzUR
Njnbr40J5UBheTbS5a7e7131oJReLLn8m5kk04ihAyPqXksNf5/iWwJzPbgEKu78
H18CAwEAAaNQME4wHQYDVR0OBBYEFNfun83u3NEXRn3/VJexWM1GHSapMB8GA1Ud
IwQYMBaAFJmztJM7X7rqw8YIccCq1sxb2fEbMAwGA1UdEwQFMAMBAf8wDQYJKoZI
hvcNAQELBQADggEBADzDo1bTfbsqqJGHAlaMgNoXGiMYgJwRNowxJNN3B0ru3+9j
0qzrCUqbt/5Gaa19jhUH5dBxEho6eS+KfWdzOXnulaz/D9nOn9gtBAFt/+UfDdUh
Dk/RoRkMVZv+QR7s9LEoutWAenc6xqWqqjygr/kCYVNBIM6SBJue9jQVuizU+v6O
N4xnrvgdbic9ri2YqSWj3jnkcL5OsJuLwoKzsXr4pFtLGRVIgwnNyGycoTDuqf3y
vS68eoZWb3JILEFiufi1FJ3cGHY+zfQ4HhPXTGiLzRn5uwSkwPmiineLgSFyTcAh
iptrrKgxwIxQeNj/uU97hb4s6iNrU1+WHsxd8ss=
-----END CERTIFICATE-----
